Certificate:
    Data:
        Version: 3 (0x2)
        Serial Number: 1 (0x1)
    Signature Algorithm: sha1WithRSAEncryption
        Issuer: C=US, ST=Unset, L=Unset, O=Unset, CN=www.example.com
        Validity
            Not Before: Dec 27 19:35:41 2015 GMT
            Not After : Dec 24 19:35:41 2025 GMT
        Subject: C=US, ST=Unset, O=Unset, CN=www.example.com
        Subject Public Key Info:
            Public Key Algorithm: rsaEncryption
                Public-Key: (2048 bit)
                Modulus:
                    00:d6:ad:20:11:9f:a7:26:68:f3:f4:d3:2a:18:59:
                    84:ca:39:f4:5f:bf:6f:ed:3c:2b:90:f9:dc:89:3d:
                    fc:f8:fb:63:a6:24:82:4d:a5:02:d2:a9:25:0d:d9:
                    88:b7:2b:ef:02:c5:8a:16:7a:fc:65:4a:bd:c9:1d:
                    a4:4e:5a:b3:00:db:f1:4c:98:bf:2b:cd:3a:af:6f:
                    93:9b:e4:3a:4d:b0:c9:92:67:35:ad:a7:90:85:1a:
                    5e:b9:be:01:1e:62:67:89:18:8c:7a:ab:9e:9d:e9:
                    7f:83:e4:a2:92:f7:89:2f:15:bd:ba:75:53:d3:de:
                    7e:bf:63:3d:a9:2f:e6:ee:15:e6:c3:dd:7f:c6:82:
                    8a:78:14:35:76:3b:b2:74:b4:fc:70:4f:c2:b7:ac:
                    03:d6:59:41:46:7c:1a:ee:a8:b9:20:b2:07:87:b3:
                    02:74:7e:5e:e5:85:28:c2:71:a8:fa:3e:85:9c:43:
                    50:96:64:a3:da:04:bd:80:aa:be:48:66:0e:e7:0a:
                    25:59:88:a0:57:ac:af:7c:ed:89:c6:7a:1f:40:21:
                    70:33:56:87:b1:dd:b7:32:cc:8f:71:95:d2:41:28:
                    3a:54:ef:b0:a1:dd:c5:7e:d6:34:cf:42:55:38:c2:
                    f9:e2:ae:fb:71:8d:ec:1f:da:e7:66:c3:f7:ab:56:
                    cd:ef
                Exponent: 65537 (0x10001)
        X509v3 extensions:
            X509v3 Basic Constraints: 
                CA:FALSE
            X509v3 Subject Key Identifier: 
                84:8B:59:B6:11:13:FF:46:63:CE:8A:D2:57:5A:E1:0C:94:91:53:B2
            X509v3 Authority Key Identifier: 
                keyid:8F:CF:E1:D4:63:CF:0C:B3:D5:9C:68:B7:74:09:6A:E4:D4:B8:50:7E

    Signature Algorithm: sha1WithRSAEncryption
         ca:cb:93:be:ef:7a:8e:0d:b6:6f:44:43:cd:cc:e7:f2:af:65:
         7d:c1:08:10:b2:18:c6:0e:e3:27:7d:a8:a0:d2:f9:7f:97:70:
         a1:d7:2e:19:b6:a1:b4:c0:1b:d1:0a:d5:37:f2:12:26:b7:7e:
         55:e8:d1:fb:ca:1a:b6:5a:4d:f5:b3:20:32:10:8a:fe:24:70:
         c5:d4:82:38:4c:2a:ad:a9:5d:2d:44:8d:cd:5c:cc:54:4d:9e:
         7a:0a:f9:6c:0e:10:84:5c:50:79:e0:1f:f1:78:d3:bd:1e:75:
         f8:04:a4:bf:c5:79:02:5c:62:74:f8:7e:80:19:13:fa:89:3a:
         40:50:68:68:b4:7a:f0:dd:91:86:d4:50:dd:b3:33:31:a9:f5:
         56:a1:c5:3d:96:57:2d:c3:ba:49:8f:25:a0:4e:4d:0b:7c:58:
         df:a8:36:5f:51:8f:62:9a:8c:e9:39:27:d1:72:83:a6:7a:63:
         29:69:15:05:2f:62:f9:3a:be:c0:f6:c4:c1:00:be:8e:82:f1:
         1f:a9:9e:b7:73:11:8e:37:90:fe:94:cc:47:3e:05:d0:4f:fd:
         88:fc:7c:8b:74:10:66:ef:0f:8b:2f:5b:64:03:1e:4e:b4:a2:
         d0:80:f2:35:51:c1:e3:a0:32:5b:0c:1b:80:e1:d6:e7:e7:af:
         fc:f7:85:22
-----BEGIN CERTIFICATE-----
MIIDZjCCAk6gAwIBAgIBATANBgkqhkiG9w0BAQUFADBXMQswCQYDVQQGEwJVUzEO
MAwGA1UECAwFVW5zZXQxDjAMBgNVBAcMBVVuc2V0MQ4wDAYDVQQKDAVVbnNldDEY
MBYGA1UEAwwPd3d3LmV4YW1wbGUuY29tMB4XDTE1MTIyNzE5MzU0MVoXDTI1MTIy
NDE5MzU0MVowRzELMAkGA1UEBhMCVVMxDjAMBgNVBAgMBVVuc2V0MQ4wDAYDVQQK
DAVVbnNldDEYMBYGA1UEAwwPd3d3LmV4YW1wbGUuY29tMIIBIjANBgkqhkiG9w0B
AQEFAAOCAQ8AMIIBCgKCAQEA1q0gEZ+nJmjz9NMqGFmEyjn0X79v7TwrkPnciT38
+PtjpiSCTaUC0qklDdmItyvvAsWKFnr8ZUq9yR2kTlqzANvxTJi/K806r2+Tm+Q6
TbDJkmc1raeQhRpeub4BHmJniRiMequenel/g+SikveJLxW9unVT095+v2M9qS/m
7hXmw91/xoKKeBQ1djuydLT8cE/Ct6wD1llBRnwa7qi5ILIHh7MCdH5e5YUownGo
+j6FnENQlmSj2gS9gKq+SGYO5wolWYigV6yvfO2JxnofQCFwM1aHsd23MsyPcZXS
QSg6VO+wod3FftY0z0JVOML54q77cY3sH9rnZsP3q1bN7wIDAQABo00wSzAJBgNV
HRMEAjAAMB0GA1UdDgQWBBSEi1m2ERP/RmPOitJXWuEMlJFTsjAfBgNVHSMEGDAW
gBSPz+HUY88Ms9WcaLd0CWrk1LhQfjANBgkqhkiG9w0BAQUFAAOCAQEAysuTvu96
jg22b0RDzczn8q9lfcEIELIYxg7jJ32ooNL5f5dwodcuGbahtMAb0QrVN/ISJrd+
VejR+8oatlpN9bMgMhCK/iRwxdSCOEwqraldLUSNzVzMVE2eegr5bA4QhFxQeeAf
8XjTvR51+ASkv8V5AlxidPh+gBkT+ok6QFBoaLR68N2RhtRQ3bMzMan1VqHFPZZX
LcO6SY8loE5NC3xY36g2X1GPYpqM6Tkn0XKDpnpjKWkVBS9i+Tq+wPbEwQC+joLx
H6met3MRjjeQ/pTMRz4F0E/9iPx8i3QQZu8Piy9bZAMeTrSi0IDyNVHB46AyWwwb
gOHW5+ev/PeFIg==
-----END CERTIFICATE-----
